target datalayout = "e-m:e-p270:32:32-p271:32:32-p272:64:64-i64:64-i128:128-f80:128-n8:16:32:64-S128"
target triple = "x86_64-pc-linux-gnu"

%struct.epan_dissect = type { ptr, ptr, ptr, %struct._packet_info }
%struct._packet_info = type { ptr, ptr, i32, i32, %struct.nstime_t, %struct.nstime_t, %struct.nstime_t, i8, ptr, ptr, ptr, ptr, %struct._address, %struct._address, %struct._address, %struct._address, %struct._address, %struct._address, i32, ptr, i8, [3 x i8], %struct.anon, i32, i32, i32, i32, ptr, i8, ptr, ptr, i16, i16, i32, i32, i16, i32, i32, ptr, ptr, ptr, i8, i8, i16, i16, i16, i32, i16, i16, ptr, ptr, ptr, ptr, ptr, i32, i32 }
%struct.nstime_t = type { i64, i32 }
%struct._address = type { i32, i32, ptr, ptr }
%struct.anon = type { i8, [3 x i8] }
%struct.wtap_rec = type { i32, i32, i32, %struct.nstime_t, i32, %struct.nstime_t, i8, %union.anon.0, ptr, i8, %struct.Buffer, %struct.Buffer }
%union.anon.0 = type { %struct.wtap_packet_header }
%struct.wtap_packet_header = type { i32, i32, i32, i32, %union.wtap_pseudo_header }
%union.wtap_pseudo_header = type { %struct.erf_mc_phdr }
%struct.erf_mc_phdr = type { %struct.erf_phdr, [16 x %struct.erf_ehdr], %union.anon.3 }
%struct.erf_phdr = type { i64, i8, i8, i16, i16, i16 }
%struct.erf_ehdr = type { i64 }
%union.anon.3 = type { i32 }
%struct.Buffer = type { ptr, i64, i64, i64 }

; Function Attrs: alwaysinline nounwind
define internal ptr @memset.inline(ptr %0, i32 %1, i64 %2) #11 {
  %4 = alloca ptr, align 8
  %5 = alloca i32, align 4
  %6 = alloca i64, align 8
  store ptr %0, ptr %4, align 8
  store i32 %1, ptr %5, align 4
  store i64 %2, ptr %6, align 8
  %7 = load ptr, ptr %4, align 8
  %8 = load i32, ptr %5, align 4
  %9 = load i64, ptr %6, align 8
  %10 = load ptr, ptr %4, align 8
  %11 = call i64 @llvm.objectsize.i64.p0(ptr %10, i1 false, i1 true, i1 true)
  %12 = call ptr @__memset_chk(ptr noundef %7, i32 noundef %8, i64 noundef %9, i64 noundef %11) #17
  ret ptr %12
}

; Function Attrs: null_pointer_is_valid sspstrong uwtable
define void @epan_dissect_reset(ptr noundef %0) #5 {
  %2 = alloca ptr, align 8
  %3 = alloca ptr, align 8
  store ptr %0, ptr %2, align 8
  call void @llvm.lifetime.start.p0(i64 8, ptr %3) #17
  br label %4

4:                                                ; preds = %1
  br label %5

5:                                                ; preds = %4
  br label %6

6:                                                ; preds = %5
  %7 = load ptr, ptr %2, align 8
  %8 = getelementptr inbounds nuw %struct.epan_dissect, ptr %7, i32 0, i32 3
  %9 = getelementptr inbounds nuw %struct._packet_info, ptr %8, i32 0, i32 10
  %10 = load ptr, ptr %9, align 8
  %11 = getelementptr inbounds nuw %struct.wtap_rec, ptr %10, i32 0, i32 8
  %12 = load ptr, ptr %11, align 8
  call void @wtap_block_unref(ptr noundef %12)
  %13 = load ptr, ptr %2, align 8
  %14 = getelementptr inbounds nuw %struct.epan_dissect, ptr %13, i32 0, i32 3
  %15 = getelementptr inbounds nuw %struct._packet_info, ptr %14, i32 0, i32 49
  %16 = load ptr, ptr %15, align 8
  call void @g_slist_free(ptr noundef %16)
  %17 = load ptr, ptr %2, align 8
  %18 = getelementptr inbounds nuw %struct.epan_dissect, ptr %17, i32 0, i32 3
  call void @free_data_sources(ptr noundef %18)
  %19 = load ptr, ptr %2, align 8
  %20 = getelementptr inbounds nuw %struct.epan_dissect, ptr %19, i32 0, i32 1
  %21 = load ptr, ptr %20, align 8
  %22 = icmp ne ptr %21, null
  br i1 %22, label %23, label %29

23:                                               ; preds = %6
  %24 = load ptr, ptr %2, align 8
  %25 = getelementptr inbounds nuw %struct.epan_dissect, ptr %24, i32 0, i32 1
  %26 = load ptr, ptr %25, align 8
  call void @tvb_free_chain(ptr noundef %26)
  %27 = load ptr, ptr %2, align 8
  %28 = getelementptr inbounds nuw %struct.epan_dissect, ptr %27, i32 0, i32 1
  store ptr null, ptr %28, align 8
  br label %29

29:                                               ; preds = %23, %6
  %30 = load ptr, ptr %2, align 8
  %31 = getelementptr inbounds nuw %struct.epan_dissect, ptr %30, i32 0, i32 2
  %32 = load ptr, ptr %31, align 8
  %33 = icmp ne ptr %32, null
  br i1 %33, label %34, label %38

34:                                               ; preds = %29
  %35 = load ptr, ptr %2, align 8
  %36 = getelementptr inbounds nuw %struct.epan_dissect, ptr %35, i32 0, i32 2
  %37 = load ptr, ptr %36, align 8
  call void @proto_tree_reset(ptr noundef %37)
  br label %38

38:                                               ; preds = %34, %29
  %39 = load ptr, ptr %2, align 8
  %40 = getelementptr inbounds nuw %struct.epan_dissect, ptr %39, i32 0, i32 3
  %41 = getelementptr inbounds nuw %struct._packet_info, ptr %40, i32 0, i32 51
  %42 = load ptr, ptr %41, align 8
  store ptr %42, ptr %3, align 8
  %43 = load ptr, ptr %3, align 8
  call void @wmem_free_all(ptr noundef %43)
  %44 = load ptr, ptr %2, align 8
  %45 = getelementptr inbounds nuw %struct.epan_dissect, ptr %44, i32 0, i32 3
  %46 = call ptr @memset.inline(ptr noundef %45, i32 noundef 0, i64 noundef 440) #17
  %47 = load ptr, ptr %3, align 8
  %48 = load ptr, ptr %2, align 8
  %49 = getelementptr inbounds nuw %struct.epan_dissect, ptr %48, i32 0, i32 3
  %50 = getelementptr inbounds nuw %struct._packet_info, ptr %49, i32 0, i32 51
  store ptr %47, ptr %50, align 8
  call void @llvm.lifetime.end.p0(i64 8, ptr %3) #17
  ret void
}