; Function Attrs: null_pointer_is_valid sspstrong uwtable
define void @epan_dissect_reset(ptr noundef %0) local_unnamed_addr #6 {
  %2 = getelementptr inbounds nuw i8, ptr %0, i64 24
  %3 = getelementptr inbounds nuw i8, ptr %0, i64 120
  %4 = load ptr, ptr %3, align 8
  %5 = getelementptr inbounds nuw i8, ptr %4, i64 232
  %6 = load ptr, ptr %5, align 8
  tail call void @wtap_block_unref(ptr noundef %6)
  %7 = getelementptr inbounds nuw i8, ptr %0, i64 416
  %8 = load ptr, ptr %7, align 8
  tail call void @g_slist_free(ptr noundef %8)
  tail call void @free_data_sources(ptr noundef nonnull %2)
  %9 = getelementptr inbounds nuw i8, ptr %0, i64 8
  %10 = load ptr, ptr %9, align 8
  %.not = icmp eq ptr %10, null
  br i1 %.not, label %12, label %11

11:                                               ; preds = %1
  tail call void @tvb_free_chain(ptr noundef nonnull %10)
  store ptr null, ptr %9, align 8
  br label %12

12:                                               ; preds = %11, %1
  %13 = getelementptr inbounds nuw i8, ptr %0, i64 16
  %14 = load ptr, ptr %13, align 8
  %.not14 = icmp eq ptr %14, null
  br i1 %.not14, label %16, label %15

15:                                               ; preds = %12
  tail call void @proto_tree_reset(ptr noundef nonnull %14)
  br label %16

16:                                               ; preds = %15, %12
  %17 = getelementptr inbounds nuw i8, ptr %0, i64 432
  %18 = load ptr, ptr %17, align 8
  tail call void @wmem_free_all(ptr noundef %18)
  tail call void @llvm.memset.p0.i64(ptr noundef nonnull align 1 dereferenceable(440) %2, i8 noundef 0, i64 noundef 440, i1 noundef false) #17
  store ptr %18, ptr %17, align 8
  ret void
}